target datalayout = "e-m:e-p270:32:32-p271:32:32-p272:64:64-i64:64-i128:128-f80:128-n8:16:32:64-S128"
target triple = "x86_64-pc-linux-gnu"

%"class.nanobind::handle" = type { ptr }
%struct.Movable = type { i32 }
%"class.std::optional.611" = type { %"struct.std::_Optional_base.612" }
%"struct.std::_Optional_base.612" = type { %"struct.std::_Optional_payload.614" }
%"struct.std::_Optional_payload.614" = type { %"struct.std::_Optional_payload.base.618", [3 x i8] }
%"struct.std::_Optional_payload.base.618" = type { %"struct.std::_Optional_payload_base.base.617" }
%"struct.std::_Optional_payload_base.base.617" = type <{ %"union.std::_Optional_payload_base<Movable>::_Storage", i8 }>
%"union.std::_Optional_payload_base<Movable>::_Storage" = type { %struct.Movable }
%"struct.std::_Optional_payload_base.616" = type <{ %"union.std::_Optional_payload_base<Movable>::_Storage", i8, [3 x i8] }>
%class.anon.633 = type { i8 }

@_ZL10destructed = internal global i32 0, align 4

; Function Attrs: mustprogress nounwind optsize uwtable
define linkonce_odr hidden void @_ZNSt22_Optional_payload_baseI7MovableE8_StorageIS0_Lb0EEC2Ev(ptr noundef nonnull align 4 dereferenceable(4) %0) unnamed_addr #2 comdat align 2 {
  %2 = alloca ptr, align 8
  store ptr %0, ptr %2, align 8, !tbaa !1025
  ret void
}

; Function Attrs: mustprogress nounwind optsize uwtable
define linkonce_odr hidden void @_ZNSt22_Optional_payload_baseI7MovableEC2Ev(ptr noundef nonnull align 4 dereferenceable(5) %0) unnamed_addr #2 comdat align 2 {
  %2 = alloca ptr, align 8
  store ptr %0, ptr %2, align 8, !tbaa !1019
  %3 = load ptr, ptr %2, align 8
  %4 = getelementptr inbounds nuw %"struct.std::_Optional_payload_base.616", ptr %3, i32 0, i32 0
  call void @_ZNSt22_Optional_payload_baseI7MovableE8_StorageIS0_Lb0EEC2Ev(ptr noundef nonnull align 4 dereferenceable(4) %4) #23
  %5 = getelementptr inbounds nuw %"struct.std::_Optional_payload_base.616", ptr %3, i32 0, i32 1
  store i8 0, ptr %5, align 4, !tbaa !1017
  ret void
}

; Function Attrs: mustprogress nounwind optsize uwtable
define linkonce_odr hidden void @_ZN7MovableD2Ev(ptr noundef nonnull align 4 dereferenceable(4) %0) unnamed_addr #2 comdat align 2 {
  %2 = alloca ptr, align 8
  store ptr %0, ptr %2, align 8, !tbaa !183
  %3 = load i32, ptr @_ZL10destructed, align 4, !tbaa !11
  %4 = add nsw i32 %3, 1
  store i32 %4, ptr @_ZL10destructed, align 4, !tbaa !11
  ret void
}

; Function Attrs: mustprogress nounwind optsize uwtable
define linkonce_odr hidden void @_ZNSt17_Optional_payloadI7MovableLb1ELb0ELb0EEC2Ev(ptr noundef nonnull align 4 dereferenceable(5) %0) unnamed_addr #2 comdat align 2 {
  %2 = alloca ptr, align 8
  store ptr %0, ptr %2, align 8, !tbaa !1023
  %3 = load ptr, ptr %2, align 8
  call void @_ZNSt22_Optional_payload_baseI7MovableEC2Ev(ptr noundef nonnull align 4 dereferenceable(5) %3) #23
  ret void
}

; Function Attrs: mustprogress nounwind optsize uwtable
define linkonce_odr hidden void @_ZNSt22_Optional_payload_baseI7MovableE8_StorageIS0_Lb0EED2Ev(ptr noundef nonnull align 4 dereferenceable(4) %0) unnamed_addr #2 comdat align 2 {
  %2 = alloca ptr, align 8
  store ptr %0, ptr %2, align 8, !tbaa !1025
  ret void
}

; Function Attrs: mustprogress nounwind optsize uwtable
define linkonce_odr hidden void @_ZNSt22_Optional_payload_baseI7MovableE10_M_destroyEv(ptr noundef nonnull align 4 dereferenceable(5) %0) #2 comdat align 2 {
  %2 = alloca ptr, align 8
  store ptr %0, ptr %2, align 8, !tbaa !1019
  %3 = load ptr, ptr %2, align 8
  %4 = getelementptr inbounds nuw %"struct.std::_Optional_payload_base.616", ptr %3, i32 0, i32 1
  store i8 0, ptr %4, align 4, !tbaa !1017
  %5 = getelementptr inbounds nuw %"struct.std::_Optional_payload_base.616", ptr %3, i32 0, i32 0
  call void @_ZN7MovableD2Ev(ptr noundef nonnull align 4 dereferenceable(4) %5) #23
  ret void
}

; Function Attrs: mustprogress nounwind optsize uwtable
define linkonce_odr hidden void @_ZNSt17_Optional_payloadI7MovableLb0ELb0ELb0EEC2Ev(ptr noundef nonnull align 4 dereferenceable(5) %0) unnamed_addr #2 comdat align 2 {
  %2 = alloca ptr, align 8
  store ptr %0, ptr %2, align 8, !tbaa !1021
  %3 = load ptr, ptr %2, align 8
  call void @_ZNSt17_Optional_payloadI7MovableLb1ELb0ELb0EEC2Ev(ptr noundef nonnull align 4 dereferenceable(5) %3) #23
  ret void
}

; Function Attrs: mustprogress nounwind optsize uwtable
define linkonce_odr hidden void @_ZNSt22_Optional_payload_baseI7MovableED2Ev(ptr noundef nonnull align 4 dereferenceable(5) %0) unnamed_addr #2 comdat align 2 {
  %2 = alloca ptr, align 8
  store ptr %0, ptr %2, align 8, !tbaa !1019
  %3 = load ptr, ptr %2, align 8
  %4 = getelementptr inbounds nuw %"struct.std::_Optional_payload_base.616", ptr %3, i32 0, i32 0
  call void @_ZNSt22_Optional_payload_baseI7MovableE8_StorageIS0_Lb0EED2Ev(ptr noundef nonnull align 4 dereferenceable(4) %4) #23
  ret void
}

; Function Attrs: mustprogress nounwind optsize uwtable
define linkonce_odr hidden void @_ZNSt22_Optional_payload_baseI7MovableE8_M_resetEv(ptr noundef nonnull align 4 dereferenceable(5) %0) #2 comdat align 2 {
  %2 = alloca ptr, align 8
  store ptr %0, ptr %2, align 8, !tbaa !1019
  %3 = load ptr, ptr %2, align 8
  %4 = getelementptr inbounds nuw %"struct.std::_Optional_payload_base.616", ptr %3, i32 0, i32 1
  %5 = load i8, ptr %4, align 4, !tbaa !1017, !range !104, !noundef !105
  %6 = trunc i8 %5 to i1
  br i1 %6, label %7, label %8

7:                                                ; preds = %1
  call void @_ZNSt22_Optional_payload_baseI7MovableE10_M_destroyEv(ptr noundef nonnull align 4 dereferenceable(5) %3) #23
  br label %8

8:                                                ; preds = %7, %1
  ret void
}

; Function Attrs: mustprogress nounwind optsize uwtable
define linkonce_odr hidden void @_ZNSt14_Optional_baseI7MovableLb0ELb0EEC2Ev(ptr noundef nonnull align 4 dereferenceable(8) %0) unnamed_addr #2 comdat align 2 {
  %2 = alloca ptr, align 8
  store ptr %0, ptr %2, align 8, !tbaa !1013
  %3 = load ptr, ptr %2, align 8
  %4 = getelementptr inbounds nuw %"struct.std::_Optional_base.612", ptr %3, i32 0, i32 0
  call void @_ZNSt17_Optional_payloadI7MovableLb0ELb0ELb0EEC2Ev(ptr noundef nonnull align 4 dereferenceable(5) %4) #23
  ret void
}

; Function Attrs: mustprogress nounwind optsize uwtable
define linkonce_odr hidden void @_ZNSt17_Optional_payloadI7MovableLb0ELb0ELb0EED2Ev(ptr noundef nonnull align 4 dereferenceable(5) %0) unnamed_addr #2 comdat align 2 {
  %2 = alloca ptr, align 8
  store ptr %0, ptr %2, align 8, !tbaa !1021
  %3 = load ptr, ptr %2, align 8
  call void @_ZNSt22_Optional_payload_baseI7MovableE8_M_resetEv(ptr noundef nonnull align 4 dereferenceable(5) %3) #23
  call void @_ZNSt22_Optional_payload_baseI7MovableED2Ev(ptr noundef nonnull align 4 dereferenceable(5) %3) #23
  ret void
}

; Function Attrs: mustprogress nounwind optsize uwtable
define linkonce_odr hidden void @_ZNSt8optionalI7MovableEC2Ev(ptr noundef nonnull align 4 dereferenceable(8) %0) unnamed_addr #2 comdat align 2 {
  %2 = alloca ptr, align 8
  store ptr %0, ptr %2, align 8, !tbaa !1011
  %3 = load ptr, ptr %2, align 8
  call void @_ZNSt14_Optional_baseI7MovableLb0ELb0EEC2Ev(ptr noundef nonnull align 4 dereferenceable(8) %3) #23
  ret void
}

; Function Attrs: inlinehint mustprogress nounwind optsize uwtable
define linkonce_odr hidden void @_ZNSt14_Optional_baseI7MovableLb0ELb0EED2Ev(ptr noundef nonnull align 4 dereferenceable(8) %0) unnamed_addr #11 comdat align 2 {
  %2 = alloca ptr, align 8
  store ptr %0, ptr %2, align 8, !tbaa !1013
  %3 = load ptr, ptr %2, align 8
  %4 = getelementptr inbounds nuw %"struct.std::_Optional_base.612", ptr %3, i32 0, i32 0
  call void @_ZNSt17_Optional_payloadI7MovableLb0ELb0ELb0EED2Ev(ptr noundef nonnull align 4 dereferenceable(5) %4) #23
  ret void
}

; Function Attrs: alwaysinline mustprogress nounwind optsize uwtable
define linkonce_odr hidden noundef ptr @_ZNK8nanobind6handle3ptrEv(ptr noundef nonnull align 8 dereferenceable(8) %0) #3 comdat align 2 {
  %2 = alloca ptr, align 8
  store ptr %0, ptr %2, align 8, !tbaa !17
  %3 = load ptr, ptr %2, align 8
  %4 = getelementptr inbounds nuw %"class.nanobind::handle", ptr %3, i32 0, i32 0
  %5 = load ptr, ptr %4, align 8, !tbaa !19
  ret ptr %5
}

; Function Attrs: inlinehint mustprogress nounwind optsize uwtable
define internal void @"_ZZL26nanobind_init_test_stl_extRN8nanobind7module_EENK4$_46clEv"(ptr dead_on_unwind noalias writable sret(%"class.std::optional.611") align 4 %0, ptr noundef nonnull align 1 dereferenceable(1) %1) #11 align 2 {
  %3 = alloca ptr, align 8
  %4 = alloca ptr, align 8
  store ptr %0, ptr %3, align 8
  store ptr %1, ptr %4, align 8, !tbaa !8
  call void @_ZNSt8optionalI7MovableEC2Ev(ptr noundef nonnull align 4 dereferenceable(8) %0) #23
  ret void
}

; Function Attrs: alwaysinline mustprogress optsize uwtable
define internal noundef ptr @"_ZZN8nanobind6detail11func_createILb0ELb1EZL26nanobind_init_test_stl_extRNS_7module_EE4$_46St8optionalI7MovableEJETpTnmJEJNS_5scopeENS_4nameEEEEP7_objectOT1_PFT2_DpT3_ESt16integer_sequenceImJXspT4_EEEDpRKT5_ENKUlPvPSB_PhNS_9rv_policyEPNS0_12cleanup_listEE_clESP_SQ_SR_SS_SU_"(ptr noundef nonnull align 1 dereferenceable(1) %0, ptr noundef %1, ptr noundef %2, ptr noundef %3, i32 noundef %4, ptr noundef %5) #7 align 2 {
  %7 = alloca ptr, align 8
  %8 = alloca ptr, align 8
  %9 = alloca ptr, align 8
  %10 = alloca ptr, align 8
  %11 = alloca i32, align 4
  %12 = alloca ptr, align 8
  %13 = alloca ptr, align 8
  %14 = alloca ptr, align 8
  %15 = alloca %"class.nanobind::handle", align 8
  %16 = alloca %"class.std::optional.611", align 4
  store ptr %0, ptr %7, align 8, !tbaa !8
  store ptr %1, ptr %8, align 8, !tbaa !8
  store ptr %2, ptr %9, align 8, !tbaa !165
  store ptr %3, ptr %10, align 8, !tbaa !34
  store i32 %4, ptr %11, align 4, !tbaa !23
  store ptr %5, ptr %12, align 8, !tbaa !167
  call void @llvm.lifetime.start.p0(i64 8, ptr %13) #21
  %17 = load ptr, ptr %8, align 8, !tbaa !8
  store ptr %17, ptr %13, align 8, !tbaa !1043
  call void @llvm.lifetime.start.p0(i64 8, ptr %14) #21
  call void @llvm.lifetime.start.p0(i64 8, ptr %15) #21
  call void @llvm.lifetime.start.p0(i64 8, ptr %16) #21
  %18 = load ptr, ptr %13, align 8, !tbaa !1043
  call void @"_ZZL26nanobind_init_test_stl_extRN8nanobind7module_EENK4$_46clEv"(ptr dead_on_unwind writable sret(%"class.std::optional.611") align 4 %16, ptr noundef nonnull align 1 dereferenceable(1) %18) #22
  %19 = load i32, ptr %11, align 4, !tbaa !23
  %20 = load ptr, ptr %12, align 8, !tbaa !167
  %21 = call ptr @_ZN8nanobind6detail15optional_casterISt8optionalI7MovableES3_E8from_cppIS4_EENS_6handleEOT_NS_9rv_policyEPNS0_12cleanup_listE(ptr noundef nonnull align 4 dereferenceable(8) %16, i32 noundef %19, ptr noundef %20) #23
  %22 = getelementptr inbounds nuw %"class.nanobind::handle", ptr %15, i32 0, i32 0
  store ptr %21, ptr %22, align 8
  %23 = call noundef ptr @_ZNK8nanobind6handle3ptrEv(ptr noundef nonnull align 8 dereferenceable(8) %15) #22
  store ptr %23, ptr %14, align 8, !tbaa !3
  call void @_ZNSt14_Optional_baseI7MovableLb0ELb0EED2Ev(ptr noundef nonnull align 4 dereferenceable(8) %16) #23
  call void @llvm.lifetime.end.p0(i64 8, ptr %16) #21
  call void @llvm.lifetime.end.p0(i64 8, ptr %15) #21
  %24 = load ptr, ptr %14, align 8, !tbaa !3
  call void @llvm.lifetime.end.p0(i64 8, ptr %14) #21
  call void @llvm.lifetime.end.p0(i64 8, ptr %13) #21
  ret ptr %24
}

; Function Attrs: inlinehint mustprogress optsize uwtable
define internal noundef ptr @"_ZZN8nanobind6detail11func_createILb0ELb1EZL26nanobind_init_test_stl_extRNS_7module_EE4$_46St8optionalI7MovableEJETpTnmJEJNS_5scopeENS_4nameEEEEP7_objectOT1_PFT2_DpT3_ESt16integer_sequenceImJXspT4_EEEDpRKT5_ENUlPvPSB_PhNS_9rv_policyEPNS0_12cleanup_listEE_8__invokeESP_SQ_SR_SS_SU_"(ptr noundef %0, ptr noundef %1, ptr noundef %2, i32 noundef %3, ptr noundef %4) #10 align 2 {
  %6 = alloca ptr, align 8
  %7 = alloca ptr, align 8
  %8 = alloca ptr, align 8
  %9 = alloca i32, align 4
  %10 = alloca ptr, align 8
  %11 = alloca %class.anon.633, align 1
  store ptr %0, ptr %6, align 8, !tbaa !8
  store ptr %1, ptr %7, align 8, !tbaa !165
  store ptr %2, ptr %8, align 8, !tbaa !34
  store i32 %3, ptr %9, align 4, !tbaa !23
  store ptr %4, ptr %10, align 8, !tbaa !167
  %12 = load ptr, ptr %6, align 8, !tbaa !8
  %13 = load ptr, ptr %7, align 8, !tbaa !165
  %14 = load ptr, ptr %8, align 8, !tbaa !34
  %15 = load i32, ptr %9, align 4, !tbaa !23
  %16 = load ptr, ptr %10, align 8, !tbaa !167
  %17 = call noundef ptr @"_ZZN8nanobind6detail11func_createILb0ELb1EZL26nanobind_init_test_stl_extRNS_7module_EE4$_46St8optionalI7MovableEJETpTnmJEJNS_5scopeENS_4nameEEEEP7_objectOT1_PFT2_DpT3_ESt16integer_sequenceImJXspT4_EEEDpRKT5_ENKUlPvPSB_PhNS_9rv_policyEPNS0_12cleanup_listEE_clESP_SQ_SR_SS_SU_"(ptr noundef nonnull align 1 dereferenceable(1) %11, ptr noundef %12, ptr noundef %13, ptr noundef %14, i32 noundef %15, ptr noundef %16) #22
  ret ptr %17
}