; Function Attrs: inlinehint mustprogress nounwind optsize uwtable
define internal noundef ptr @"_ZZN8nanobind6detail11func_createILb0ELb1EZL26nanobind_init_test_stl_extRNS_7module_EE4$_46St8optionalI7MovableEJETpTnmJEJNS_5scopeENS_4nameEEEEP7_objectOT1_PFT2_DpT3_ESt16integer_sequenceImJXspT4_EEEDpRKT5_ENUlPvPSB_PhNS_9rv_policyEPNS0_12cleanup_listEE_8__invokeESP_SQ_SR_SS_SU_"(ptr readnone captures(none) %0, ptr readnone captures(none) %1, ptr readnone captures(none) %2, i32 noundef %3, ptr noundef %4) #18 align 2 {
  %6 = alloca %"class.std::optional.611", align 4
  call void @llvm.lifetime.start.p0(i64 8, ptr nonnull %6) #28
  %7 = getelementptr inbounds nuw i8, ptr %6, i64 4
  store i8 0, ptr %7, align 4, !tbaa !409, !alias.scope !419
  %8 = call ptr @_ZN8nanobind6detail15optional_casterISt8optionalI7MovableES3_E8from_cppIS4_EENS_6handleEOT_NS_9rv_policyEPNS0_12cleanup_listE(ptr noundef nonnull align 4 dereferenceable(8) %6, i32 noundef %3, ptr noundef %4) #27
  %9 = load i8, ptr %7, align 4, !tbaa !409, !range !402, !noundef !403
  %10 = trunc nuw i8 %9 to i1
  br i1 %10, label %11, label %_ZNSt14_Optional_baseI7MovableLb0ELb0EED2Ev.exit

11:                                               ; preds = %5
  %12 = load i32, ptr @_ZL10destructed, align 4, !tbaa !128
  %13 = add nsw i32 %12, 1
  store i32 %13, ptr @_ZL10destructed, align 4, !tbaa !128
  br label %_ZNSt14_Optional_baseI7MovableLb0ELb0EED2Ev.exit

_ZNSt14_Optional_baseI7MovableLb0ELb0EED2Ev.exit: ; preds = %5, %11
  call void @llvm.lifetime.end.p0(i64 8, ptr nonnull %6) #28
  ret ptr %8
}